target datalayout = "e-m:e-p270:32:32-p271:32:32-p272:64:64-i64:64-i128:128-f80:128-n8:16:32:64-S128"
target triple = "x86_64-pc-linux-gnu"

%struct.hf_items = type { ptr, i32, i32, ptr, i32 }

@.str.1772 = private unnamed_addr constant [29 x i8] c"%s:%u: failed assertion \22%s\22\00", align 1
@.str.1773 = private unnamed_addr constant [32 x i8] c"epan/dissectors/packet-tn5250.c\00", align 1
@.str.1774 = private unnamed_addr constant [21 x i8] c"fields[i].length > 0\00", align 1

; Function Attrs: null_pointer_is_valid sspstrong uwtable
define internal i32 @tn5250_add_hf_items(ptr noundef %0, ptr noundef %1, i32 noundef %2, ptr noundef %3) #0 {
  %5 = alloca ptr, align 8
  %6 = alloca ptr, align 8
  %7 = alloca i32, align 4
  %8 = alloca ptr, align 8
  %9 = alloca i32, align 4
  %10 = alloca i32, align 4
  %11 = alloca i32, align 4
  store ptr %0, ptr %5, align 8
  store ptr %1, ptr %6, align 8
  store i32 %2, ptr %7, align 4
  store ptr %3, ptr %8, align 8
  call void @llvm.lifetime.start.p0(i64 4, ptr %9) #8
  %12 = load i32, ptr %7, align 4
  store i32 %12, ptr %9, align 4
  call void @llvm.lifetime.start.p0(i64 4, ptr %10) #8
  call void @llvm.lifetime.start.p0(i64 4, ptr %11) #8
  store i32 0, ptr %11, align 4
  br label %13

13:                                               ; preds = %107, %4
  %14 = load ptr, ptr %8, align 8
  %15 = load i32, ptr %11, align 4
  %16 = sext i32 %15 to i64
  %17 = getelementptr %struct.hf_items, ptr %14, i64 %16
  %18 = getelementptr inbounds nuw %struct.hf_items, ptr %17, i32 0, i32 0
  %19 = load ptr, ptr %18, align 8
  %20 = icmp ne ptr %19, null
  br i1 %20, label %21, label %110

21:                                               ; preds = %13
  %22 = load ptr, ptr %8, align 8
  %23 = load i32, ptr %11, align 4
  %24 = sext i32 %23 to i64
  %25 = getelementptr %struct.hf_items, ptr %22, i64 %24
  %26 = getelementptr inbounds nuw %struct.hf_items, ptr %25, i32 0, i32 3
  %27 = load ptr, ptr %26, align 8
  %28 = icmp eq ptr %27, null
  br i1 %28, label %29, label %63

29:                                               ; preds = %21
  %30 = load ptr, ptr %6, align 8
  %31 = load i32, ptr %7, align 4
  %32 = call zeroext i8 @tvb_get_uint8(ptr noundef %30, i32 noundef %31)
  %33 = zext i8 %32 to i32
  store i32 %33, ptr %10, align 4
  %34 = load i32, ptr %10, align 4
  %35 = icmp eq i32 %34, 255
  br i1 %35, label %36, label %39

36:                                               ; preds = %29
  %37 = load i32, ptr %7, align 4
  %38 = add i32 %37, 1
  store i32 %38, ptr %7, align 4
  br label %39

39:                                               ; preds = %36, %29
  %40 = load ptr, ptr %5, align 8
  %41 = load ptr, ptr %8, align 8
  %42 = load i32, ptr %11, align 4
  %43 = sext i32 %42 to i64
  %44 = getelementptr %struct.hf_items, ptr %41, i64 %43
  %45 = getelementptr inbounds nuw %struct.hf_items, ptr %44, i32 0, i32 0
  %46 = load ptr, ptr %45, align 8
  %47 = load i32, ptr %46, align 4
  %48 = load ptr, ptr %6, align 8
  %49 = load i32, ptr %7, align 4
  %50 = load ptr, ptr %8, align 8
  %51 = load i32, ptr %11, align 4
  %52 = sext i32 %51 to i64
  %53 = getelementptr %struct.hf_items, ptr %50, i64 %52
  %54 = getelementptr inbounds nuw %struct.hf_items, ptr %53, i32 0, i32 2
  %55 = load i32, ptr %54, align 4
  %56 = load ptr, ptr %8, align 8
  %57 = load i32, ptr %11, align 4
  %58 = sext i32 %57 to i64
  %59 = getelementptr %struct.hf_items, ptr %56, i64 %58
  %60 = getelementptr inbounds nuw %struct.hf_items, ptr %59, i32 0, i32 4
  %61 = load i32, ptr %60, align 8
  %62 = call ptr @proto_tree_add_item(ptr noundef %40, i32 noundef %47, ptr noundef %48, i32 noundef %49, i32 noundef %55, i32 noundef %61)
  br label %87

63:                                               ; preds = %21
  %64 = load ptr, ptr %5, align 8
  %65 = load ptr, ptr %6, align 8
  %66 = load i32, ptr %7, align 4
  %67 = load ptr, ptr %8, align 8
  %68 = load i32, ptr %11, align 4
  %69 = sext i32 %68 to i64
  %70 = getelementptr %struct.hf_items, ptr %67, i64 %69
  %71 = getelementptr inbounds nuw %struct.hf_items, ptr %70, i32 0, i32 0
  %72 = load ptr, ptr %71, align 8
  %73 = load i32, ptr %72, align 4
  %74 = load ptr, ptr %8, align 8
  %75 = load i32, ptr %11, align 4
  %76 = sext i32 %75 to i64
  %77 = getelementptr %struct.hf_items, ptr %74, i64 %76
  %78 = getelementptr inbounds nuw %struct.hf_items, ptr %77, i32 0, i32 1
  %79 = load i32, ptr %78, align 8
  %80 = load ptr, ptr %8, align 8
  %81 = load i32, ptr %11, align 4
  %82 = sext i32 %81 to i64
  %83 = getelementptr %struct.hf_items, ptr %80, i64 %82
  %84 = getelementptr inbounds nuw %struct.hf_items, ptr %83, i32 0, i32 3
  %85 = load ptr, ptr %84, align 8
  %86 = call ptr @proto_tree_add_bitmask(ptr noundef %64, ptr noundef %65, i32 noundef %66, i32 noundef %73, i32 noundef %79, ptr noundef %85, i32 noundef 0)
  br label %87

87:                                               ; preds = %63, %39
  %88 = load ptr, ptr %8, align 8
  %89 = load i32, ptr %11, align 4
  %90 = sext i32 %89 to i64
  %91 = getelementptr %struct.hf_items, ptr %88, i64 %90
  %92 = getelementptr inbounds nuw %struct.hf_items, ptr %91, i32 0, i32 2
  %93 = load i32, ptr %92, align 4
  %94 = icmp sgt i32 %93, 0
  br i1 %94, label %95, label %96

95:                                               ; preds = %87
  br label %98

96:                                               ; preds = %87
  call void (ptr, ...) @proto_report_dissector_bug(ptr noundef @.str.1772, ptr noundef @.str.1773, i32 noundef 2974, ptr noundef @.str.1774) #10
  unreachable

97:                                               ; No predecessors!
  br label %98

98:                                               ; preds = %97, %95
  %99 = load ptr, ptr %8, align 8
  %100 = load i32, ptr %11, align 4
  %101 = sext i32 %100 to i64
  %102 = getelementptr %struct.hf_items, ptr %99, i64 %101
  %103 = getelementptr inbounds nuw %struct.hf_items, ptr %102, i32 0, i32 2
  %104 = load i32, ptr %103, align 4
  %105 = load i32, ptr %7, align 4
  %106 = add i32 %105, %104
  store i32 %106, ptr %7, align 4
  br label %107

107:                                              ; preds = %98
  %108 = load i32, ptr %11, align 4
  %109 = add i32 %108, 1
  store i32 %109, ptr %11, align 4
  br label %13, !llvm.loop !9

110:                                              ; preds = %13
  %111 = load i32, ptr %7, align 4
  %112 = load i32, ptr %9, align 4
  %113 = sub i32 %111, %112
  call void @llvm.lifetime.end.p0(i64 4, ptr %11) #8
  call void @llvm.lifetime.end.p0(i64 4, ptr %10) #8
  call void @llvm.lifetime.end.p0(i64 4, ptr %9) #8
  ret i32 %113
}