; Function Attrs: null_pointer_is_valid sspstrong uwtable
define internal fastcc i32 @tn5250_add_hf_items(ptr noundef %0, ptr noundef %1, i32 noundef %2, ptr noundef readonly captures(none) %3) unnamed_addr #0 {
  %5 = load ptr, ptr %3, align 8
  %.not39 = icmp eq ptr %5, null
  br i1 %.not39, label %._crit_edge, label %.lr.ph

.lr.ph:                                           ; preds = %4, %32
  %6 = phi ptr [ %37, %32 ], [ %5, %4 ]
  %7 = phi ptr [ %36, %32 ], [ %3, %4 ]
  %.041 = phi i32 [ %34, %32 ], [ 0, %4 ]
  %.03440 = phi i32 [ %33, %32 ], [ %2, %4 ]
  %8 = getelementptr inbounds nuw i8, ptr %7, i64 16
  %9 = load ptr, ptr %8, align 8
  %10 = icmp eq ptr %9, null
  br i1 %10, label %11, label %22

11:                                               ; preds = %.lr.ph
  %12 = tail call zeroext i8 @tvb_get_uint8(ptr noundef %1, i32 noundef %.03440)
  %13 = icmp eq i8 %12, -1
  %14 = zext i1 %13 to i32
  %spec.select = add i32 %.03440, %14
  %15 = load ptr, ptr %7, align 8
  %16 = load i32, ptr %15, align 4
  %17 = getelementptr inbounds nuw i8, ptr %7, i64 12
  %18 = load i32, ptr %17, align 4
  %19 = getelementptr inbounds nuw i8, ptr %7, i64 24
  %20 = load i32, ptr %19, align 8
  %21 = tail call ptr @proto_tree_add_item(ptr noundef %0, i32 noundef %16, ptr noundef %1, i32 noundef %spec.select, i32 noundef %18, i32 noundef %20)
  br label %27

22:                                               ; preds = %.lr.ph
  %23 = load i32, ptr %6, align 4
  %24 = getelementptr inbounds nuw i8, ptr %7, i64 8
  %25 = load i32, ptr %24, align 8
  %26 = tail call ptr @proto_tree_add_bitmask(ptr noundef %0, ptr noundef %1, i32 noundef %.03440, i32 noundef %23, i32 noundef %25, ptr noundef nonnull %9, i32 noundef 0)
  br label %27

27:                                               ; preds = %22, %11
  %.2 = phi i32 [ %spec.select, %11 ], [ %.03440, %22 ]
  %28 = getelementptr inbounds nuw i8, ptr %7, i64 12
  %29 = load i32, ptr %28, align 4
  %30 = icmp sgt i32 %29, 0
  br i1 %30, label %32, label %31

31:                                               ; preds = %27
  tail call void (ptr, ...) @proto_report_dissector_bug(ptr noundef nonnull @.str.1772, ptr noundef nonnull @.str.1773, i32 noundef 2974, ptr noundef nonnull @.str.1774) #8
  unreachable

32:                                               ; preds = %27
  %33 = add i32 %29, %.2
  %34 = add i32 %.041, 1
  %35 = sext i32 %34 to i64
  %36 = getelementptr %struct.hf_items, ptr %3, i64 %35
  %37 = load ptr, ptr %36, align 8
  %.not = icmp eq ptr %37, null
  br i1 %.not, label %._crit_edge, label %.lr.ph, !llvm.loop !9

._crit_edge:                                      ; preds = %32, %4
  %.034.lcssa = phi i32 [ %2, %4 ], [ %33, %32 ]
  %38 = sub i32 %.034.lcssa, %2
  ret i32 %38
}